; Function Attrs: null_pointer_is_valid sspstrong uwtable
define hidden noalias ptr @proto_item_get_text(ptr noundef %0, ptr noundef readonly captures(address_is_null) %1) local_unnamed_addr #0 {
  %3 = icmp eq ptr %1, null
  br i1 %3, label %14, label %4

4:                                                ; preds = %2
  %5 = getelementptr inbounds nuw i8, ptr %1, i64 40
  %6 = load ptr, ptr %5, align 8
  %7 = icmp eq ptr %6, null
  br i1 %7, label %14, label %8

8:                                                ; preds = %4
  %9 = getelementptr inbounds nuw i8, ptr %6, i64 32
  %10 = load ptr, ptr %9, align 8
  %11 = icmp eq ptr %10, null
  br i1 %11, label %14, label %12

12:                                               ; preds = %8
  %13 = tail call noalias ptr @wmem_strdup(ptr noundef %0, ptr noundef nonnull %10)
  br label %14

14:                                               ; preds = %8, %4, %2, %12
  %.0 = phi ptr [ %13, %12 ], [ null, %2 ], [ null, %4 ], [ null, %8 ]
  ret ptr %.0
}